; Function Attrs: null_pointer_is_valid sspstrong uwtable
define internal range(i32 -268435456, 268435456) i32 @dissect_RICindicationMessage_PDU(ptr noundef %0, ptr noundef %1, ptr noundef %2, ptr readnone captures(none) %3) #2 {
  %5 = alloca ptr, align 8
  %6 = alloca %struct._asn1_ctx_t, align 8
  call void @llvm.lifetime.start.p0(i64 208, ptr nonnull %6) #12
  call void @asn1_ctx_init(ptr noundef nonnull %6, i32 noundef 1, i1 noundef zeroext true, ptr noundef %1)
  %7 = load i32, ptr @hf_e2ap_RICindicationMessage_PDU, align 4
  call void @llvm.lifetime.start.p0(i64 8, ptr nonnull %5) #12
  %8 = call i32 @dissect_per_octet_string(ptr noundef %0, i32 noundef 0, ptr noundef nonnull %6, ptr noundef %2, i32 noundef %7, i32 noundef -1, i32 noundef -1, i1 noundef zeroext false, ptr noundef nonnull %5)
  %9 = getelementptr inbounds nuw i8, ptr %6, i64 16
  %10 = load ptr, ptr %9, align 8
  %11 = load ptr, ptr %5, align 8
  %12 = call fastcc ptr @lookup_ranfunction_dissector(ptr noundef %10, ptr noundef %2, ptr noundef %11)
  %.not.i = icmp eq ptr %12, null
  br i1 %.not.i, label %dissect_e2ap_RICindicationMessage.exit, label %13

13:                                               ; preds = %4
  %14 = getelementptr inbounds nuw i8, ptr %12, i64 1080
  %15 = load ptr, ptr %14, align 8
  %.not13.i = icmp eq ptr %15, null
  br i1 %.not13.i, label %dissect_e2ap_RICindicationMessage.exit, label %16

16:                                               ; preds = %13
  %17 = load ptr, ptr %5, align 8
  %18 = load ptr, ptr %9, align 8
  %19 = call i32 %15(ptr noundef %17, ptr noundef %18, ptr noundef %2, ptr noundef null)
  br label %dissect_e2ap_RICindicationMessage.exit

dissect_e2ap_RICindicationMessage.exit:           ; preds = %4, %13, %16
  call void @llvm.lifetime.end.p0(i64 8, ptr nonnull %5) #12
  %20 = add i32 %8, 7
  %21 = ashr i32 %20, 3
  call void @llvm.lifetime.end.p0(i64 208, ptr nonnull %6) #12
  ret i32 %21
}